target datalayout = "e-m:e-p270:32:32-p271:32:32-p272:64:64-i64:64-i128:128-f80:128-n8:16:32:64-S128"
target triple = "x86_64-pc-linux-gnu"

%struct.sp_int = type { i16, i16, [129 x i64] }
%struct.ecc_key = type { i32, i32, i32, i32, ptr, ptr, %struct.ecc_point, [1 x %struct.sp_int], ptr }
%struct.ecc_point = type { [1 x %struct.sp_int], [1 x %struct.sp_int], [1 x %struct.sp_int], i8 }
%struct.ecc_set_type = type { i32, i32, ptr, ptr, ptr, ptr, ptr, ptr, ptr, ptr, i32, i32, i32 }

; Function Attrs: nounwind uwtable
define i32 @wc_RsaPrivateKeyDecode(ptr noundef %0, ptr noundef %1, ptr noundef %2, i32 noundef %3) #0 {
  %5 = alloca i32, align 4
  %6 = alloca ptr, align 8
  %7 = alloca ptr, align 8
  %8 = alloca ptr, align 8
  %9 = alloca i32, align 4
  store ptr %0, ptr %6, align 8, !tbaa !7
  store ptr %1, ptr %7, align 8, !tbaa !18
  store ptr %2, ptr %8, align 8, !tbaa !62
  store i32 %3, ptr %9, align 4, !tbaa !3
  %10 = load ptr, ptr %8, align 8, !tbaa !62
  %11 = icmp eq ptr %10, null
  br i1 %11, label %12, label %13

12:                                               ; preds = %4
  store i32 -173, ptr %5, align 4
  br label %19

13:                                               ; preds = %4
  %14 = load ptr, ptr %6, align 8, !tbaa !7
  %15 = load ptr, ptr %7, align 8, !tbaa !18
  %16 = load ptr, ptr %8, align 8, !tbaa !62
  %17 = load i32, ptr %9, align 4, !tbaa !3
  %18 = call i32 @_RsaPrivateKeyDecode(ptr noundef %14, ptr noundef %15, ptr noundef %16, ptr noundef null, i32 noundef %17)
  store i32 %18, ptr %5, align 4
  br label %19

19:                                               ; preds = %13, %12
  %20 = load i32, ptr %5, align 4
  ret i32 %20
}

; Function Attrs: nounwind uwtable
define i32 @wc_GetKeyOID(ptr noundef %0, i32 noundef %1, ptr noundef %2, ptr noundef %3, ptr noundef %4, ptr noundef %5) #0 {
  %7 = alloca i32, align 4
  %8 = alloca ptr, align 8
  %9 = alloca i32, align 4
  %10 = alloca ptr, align 8
  %11 = alloca ptr, align 8
  %12 = alloca ptr, align 8
  %13 = alloca ptr, align 8
  %14 = alloca i32, align 4
  %15 = alloca i32, align 4
  %16 = alloca ptr, align 8
  %17 = alloca ptr, align 8
  %18 = alloca ptr, align 8
  %19 = alloca ptr, align 8
  %20 = alloca ptr, align 8
  store ptr %0, ptr %8, align 8, !tbaa !7
  store i32 %1, ptr %9, align 4, !tbaa !3
  store ptr %2, ptr %10, align 8, !tbaa !90
  store ptr %3, ptr %11, align 8, !tbaa !18
  store ptr %4, ptr %12, align 8, !tbaa !18
  store ptr %5, ptr %13, align 8, !tbaa !64
  call void @llvm.lifetime.start.p0(i64 4, ptr %14) #9
  store i32 0, ptr %14, align 4, !tbaa !3
  %21 = load ptr, ptr %8, align 8, !tbaa !7
  %22 = icmp eq ptr %21, null
  br i1 %22, label %26, label %23

23:                                               ; preds = %6
  %24 = load ptr, ptr %12, align 8, !tbaa !18
  %25 = icmp eq ptr %24, null
  br i1 %25, label %26, label %27

26:                                               ; preds = %23, %6
  store i32 -173, ptr %7, align 4
  store i32 1, ptr %15, align 4
  br label %135

27:                                               ; preds = %23
  %28 = load ptr, ptr %12, align 8, !tbaa !18
  store i32 0, ptr %28, align 4, !tbaa !3
  call void @llvm.lifetime.start.p0(i64 8, ptr %16) #9
  %29 = call ptr @wolfSSL_Malloc(i64 noundef 8368)
  store ptr %29, ptr %16, align 8, !tbaa !62
  %30 = load ptr, ptr %16, align 8, !tbaa !62
  %31 = icmp eq ptr %30, null
  br i1 %31, label %32, label %33

32:                                               ; preds = %27
  store i32 -125, ptr %7, align 4
  store i32 1, ptr %15, align 4
  br label %60

33:                                               ; preds = %27
  %34 = load ptr, ptr %16, align 8, !tbaa !62
  %35 = load ptr, ptr %13, align 8, !tbaa !64
  %36 = call i32 @wc_InitRsaKey(ptr noundef %34, ptr noundef %35)
  %37 = load ptr, ptr %8, align 8, !tbaa !7
  %38 = load ptr, ptr %16, align 8, !tbaa !62
  %39 = load i32, ptr %9, align 4, !tbaa !3
  %40 = call i32 @wc_RsaPrivateKeyDecode(ptr noundef %37, ptr noundef %14, ptr noundef %38, i32 noundef %39)
  %41 = icmp eq i32 %40, 0
  br i1 %41, label %42, label %44

42:                                               ; preds = %33
  %43 = load ptr, ptr %12, align 8, !tbaa !18
  store i32 645, ptr %43, align 4, !tbaa !3
  br label %48

44:                                               ; preds = %33
  br label %45

45:                                               ; preds = %44
  br label %46

46:                                               ; preds = %45
  br label %47

47:                                               ; preds = %46
  br label %48

48:                                               ; preds = %47, %42
  %49 = load ptr, ptr %16, align 8, !tbaa !62
  %50 = call i32 @wc_FreeRsaKey(ptr noundef %49)
  br label %51

51:                                               ; preds = %48
  call void @llvm.lifetime.start.p0(i64 8, ptr %17) #9
  %52 = load ptr, ptr %16, align 8, !tbaa !62
  store ptr %52, ptr %17, align 8, !tbaa !64
  %53 = load ptr, ptr %17, align 8, !tbaa !64
  %54 = icmp ne ptr %53, null
  br i1 %54, label %55, label %57

55:                                               ; preds = %51
  %56 = load ptr, ptr %17, align 8, !tbaa !64
  call void @wolfSSL_Free(ptr noundef %56)
  br label %57

57:                                               ; preds = %55, %51
  call void @llvm.lifetime.end.p0(i64 8, ptr %17) #9
  br label %58

58:                                               ; preds = %57
  br label %59

59:                                               ; preds = %58
  store i32 0, ptr %15, align 4
  br label %60

60:                                               ; preds = %59, %32
  call void @llvm.lifetime.end.p0(i64 8, ptr %16) #9
  %61 = load i32, ptr %15, align 4
  switch i32 %61, label %135 [
    i32 0, label %62
  ]

62:                                               ; preds = %60
  %63 = load ptr, ptr %12, align 8, !tbaa !18
  %64 = load i32, ptr %63, align 4, !tbaa !3
  %65 = icmp eq i32 %64, 0
  br i1 %65, label %66, label %126

66:                                               ; preds = %62
  call void @llvm.lifetime.start.p0(i64 8, ptr %18) #9
  %67 = call ptr @wolfSSL_Malloc(i64 noundef 4208)
  store ptr %67, ptr %18, align 8, !tbaa !71
  %68 = load ptr, ptr %18, align 8, !tbaa !71
  %69 = icmp eq ptr %68, null
  br i1 %69, label %70, label %71

70:                                               ; preds = %66
  store i32 -125, ptr %7, align 4
  store i32 1, ptr %15, align 4
  br label %123

71:                                               ; preds = %66
  store i32 0, ptr %14, align 4, !tbaa !3
  %72 = load ptr, ptr %18, align 8, !tbaa !71
  %73 = load ptr, ptr %13, align 8, !tbaa !64
  %74 = call i32 @wc_ecc_init_ex(ptr noundef %72, ptr noundef %73, i32 noundef -2)
  %75 = load ptr, ptr %8, align 8, !tbaa !7
  %76 = load ptr, ptr %18, align 8, !tbaa !71
  %77 = load i32, ptr %9, align 4, !tbaa !3
  %78 = call i32 @wc_EccPrivateKeyDecode(ptr noundef %75, ptr noundef %14, ptr noundef %76, i32 noundef %77)
  %79 = icmp eq i32 %78, 0
  br i1 %79, label %80, label %107

80:                                               ; preds = %71
  %81 = load ptr, ptr %12, align 8, !tbaa !18
  store i32 518, ptr %81, align 4, !tbaa !3
  %82 = load ptr, ptr %18, align 8, !tbaa !71
  %83 = getelementptr inbounds nuw %struct.ecc_key, ptr %82, i32 0, i32 4
  %84 = load ptr, ptr %83, align 8, !tbaa !92
  %85 = getelementptr inbounds nuw %struct.ecc_set_type, ptr %84, i32 0, i32 11
  %86 = load i32, ptr %85, align 4, !tbaa !96
  %87 = load ptr, ptr %10, align 8, !tbaa !90
  %88 = load ptr, ptr %11, align 8, !tbaa !18
  %89 = call i32 @wc_ecc_get_oid(i32 noundef %86, ptr noundef %87, ptr noundef %88)
  %90 = icmp slt i32 %89, 0
  br i1 %90, label %91, label %106

91:                                               ; preds = %80
  br label %92

92:                                               ; preds = %91
  br label %93

93:                                               ; preds = %92
  br label %94

94:                                               ; preds = %93
  %95 = load ptr, ptr %18, align 8, !tbaa !71
  %96 = call i32 @wc_ecc_free(ptr noundef %95)
  br label %97

97:                                               ; preds = %94
  call void @llvm.lifetime.start.p0(i64 8, ptr %19) #9
  %98 = load ptr, ptr %18, align 8, !tbaa !71
  store ptr %98, ptr %19, align 8, !tbaa !64
  %99 = load ptr, ptr %19, align 8, !tbaa !64
  %100 = icmp ne ptr %99, null
  br i1 %100, label %101, label %103

101:                                              ; preds = %97
  %102 = load ptr, ptr %19, align 8, !tbaa !64
  call void @wolfSSL_Free(ptr noundef %102)
  br label %103

103:                                              ; preds = %101, %97
  call void @llvm.lifetime.end.p0(i64 8, ptr %19) #9
  br label %104

104:                                              ; preds = %103
  br label %105

105:                                              ; preds = %104
  store i32 -173, ptr %7, align 4
  store i32 1, ptr %15, align 4
  br label %123

106:                                              ; preds = %80
  br label %111

107:                                              ; preds = %71
  br label %108

108:                                              ; preds = %107
  br label %109

109:                                              ; preds = %108
  br label %110

110:                                              ; preds = %109
  br label %111

111:                                              ; preds = %110, %106
  %112 = load ptr, ptr %18, align 8, !tbaa !71
  %113 = call i32 @wc_ecc_free(ptr noundef %112)
  br label %114

114:                                              ; preds = %111
  call void @llvm.lifetime.start.p0(i64 8, ptr %20) #9
  %115 = load ptr, ptr %18, align 8, !tbaa !71
  store ptr %115, ptr %20, align 8, !tbaa !64
  %116 = load ptr, ptr %20, align 8, !tbaa !64
  %117 = icmp ne ptr %116, null
  br i1 %117, label %118, label %120

118:                                              ; preds = %114
  %119 = load ptr, ptr %20, align 8, !tbaa !64
  call void @wolfSSL_Free(ptr noundef %119)
  br label %120

120:                                              ; preds = %118, %114
  call void @llvm.lifetime.end.p0(i64 8, ptr %20) #9
  br label %121

121:                                              ; preds = %120
  br label %122

122:                                              ; preds = %121
  store i32 0, ptr %15, align 4
  br label %123

123:                                              ; preds = %122, %105, %70
  call void @llvm.lifetime.end.p0(i64 8, ptr %18) #9
  %124 = load i32, ptr %15, align 4
  switch i32 %124, label %135 [
    i32 0, label %125
  ]

125:                                              ; preds = %123
  br label %126

126:                                              ; preds = %125, %62
  %127 = load ptr, ptr %12, align 8, !tbaa !18
  %128 = load i32, ptr %127, align 4, !tbaa !3
  %129 = icmp eq i32 %128, 0
  br i1 %129, label %130, label %134

130:                                              ; preds = %126
  br label %131

131:                                              ; preds = %130
  br label %132

132:                                              ; preds = %131
  br label %133

133:                                              ; preds = %132
  store i32 -173, ptr %7, align 4
  store i32 1, ptr %15, align 4
  br label %135

134:                                              ; preds = %126
  store i32 1, ptr %7, align 4
  store i32 1, ptr %15, align 4
  br label %135

135:                                              ; preds = %134, %133, %123, %60, %26
  call void @llvm.lifetime.end.p0(i64 4, ptr %14) #9
  %136 = load i32, ptr %7, align 4
  ret i32 %136
}