; Function Attrs: nounwind uwtable
define range(i32 -173, 2) i32 @wc_GetKeyOID(ptr noundef %0, i32 noundef %1, ptr noundef %2, ptr noundef %3, ptr noundef captures(address_is_null) %4, ptr noundef %5) local_unnamed_addr #2 {
  %7 = alloca i32, align 4
  call void @llvm.lifetime.start.p0(i64 4, ptr nonnull %7) #22
  store i32 0, ptr %7, align 4, !tbaa !22
  %8 = icmp eq ptr %0, null
  %9 = icmp eq ptr %4, null
  %or.cond = or i1 %8, %9
  br i1 %or.cond, label %.critedge, label %10

10:                                               ; preds = %6
  store i32 0, ptr %4, align 4, !tbaa !22
  %11 = tail call ptr @wolfSSL_Malloc(i64 noundef 8368) #22
  %.not = icmp eq ptr %11, null
  br i1 %.not, label %.critedge, label %wc_RsaPrivateKeyDecode.exit

wc_RsaPrivateKeyDecode.exit:                      ; preds = %10
  %12 = tail call i32 @wc_InitRsaKey(ptr noundef nonnull %11, ptr noundef %5) #22
  %13 = call fastcc i32 @_RsaPrivateKeyDecode(ptr noundef nonnull %0, ptr noundef nonnull %7, ptr noundef nonnull %11, ptr noundef null, i32 noundef %1)
  %14 = icmp eq i32 %13, 0
  br i1 %14, label %15, label %16

15:                                               ; preds = %wc_RsaPrivateKeyDecode.exit
  store i32 645, ptr %4, align 4, !tbaa !22
  br label %16

16:                                               ; preds = %15, %wc_RsaPrivateKeyDecode.exit
  %17 = call i32 @wc_FreeRsaKey(ptr noundef nonnull %11) #22
  call void @wolfSSL_Free(ptr noundef nonnull %11) #22
  %18 = load i32, ptr %4, align 4, !tbaa !22
  %19 = icmp eq i32 %18, 0
  br i1 %19, label %20, label %.critedge

20:                                               ; preds = %16
  %21 = call ptr @wolfSSL_Malloc(i64 noundef 4208) #22
  %22 = icmp eq ptr %21, null
  br i1 %22, label %.critedge, label %23

23:                                               ; preds = %20
  store i32 0, ptr %7, align 4, !tbaa !22
  %24 = call i32 @wc_ecc_init_ex(ptr noundef nonnull %21, ptr noundef %5, i32 noundef -2) #22
  %25 = call i32 @wc_EccPrivateKeyDecode(ptr noundef nonnull %0, ptr noundef nonnull %7, ptr noundef nonnull %21, i32 noundef %1)
  %26 = icmp eq i32 %25, 0
  br i1 %26, label %27, label %36

27:                                               ; preds = %23
  store i32 518, ptr %4, align 4, !tbaa !22
  %28 = getelementptr inbounds nuw i8, ptr %21, i64 16
  %29 = load ptr, ptr %28, align 8, !tbaa !70
  %30 = getelementptr inbounds nuw i8, ptr %29, i64 76
  %31 = load i32, ptr %30, align 4, !tbaa !74
  %32 = call i32 @wc_ecc_get_oid(i32 noundef %31, ptr noundef %2, ptr noundef %3) #22
  %33 = icmp slt i32 %32, 0
  br i1 %33, label %34, label %36

34:                                               ; preds = %27
  %35 = call i32 @wc_ecc_free(ptr noundef nonnull %21) #22
  call void @wolfSSL_Free(ptr noundef nonnull %21) #22
  br label %.critedge

36:                                               ; preds = %27, %23
  %37 = call i32 @wc_ecc_free(ptr noundef nonnull %21) #22
  call void @wolfSSL_Free(ptr noundef nonnull %21) #22
  %.pre = load i32, ptr %4, align 4, !tbaa !22
  %38 = icmp eq i32 %.pre, 0
  %39 = select i1 %38, i32 -173, i32 1
  br label %.critedge

.critedge:                                        ; preds = %16, %36, %20, %34, %10, %6
  %.0 = phi i32 [ -173, %6 ], [ -125, %10 ], [ -125, %20 ], [ -173, %34 ], [ %39, %36 ], [ 1, %16 ]
  call void @llvm.lifetime.end.p0(i64 4, ptr nonnull %7) #22
  ret i32 %.0
}